target datalayout = "e-m:e-p270:32:32-p271:32:32-p272:64:64-i64:64-i128:128-f80:128-n8:16:32:64-S128"
target triple = "x86_64-pc-linux-gnu"

; Function Attrs: inlinehint nounwind uwtable
define internal ptr @ossl_check_CONF_VALUE_freefunc_type(ptr noundef %0) #3 {
  %2 = alloca ptr, align 8
  store ptr %0, ptr %2, align 8, !tbaa !20
  %3 = load ptr, ptr %2, align 8, !tbaa !20
  ret ptr %3
}

; Function Attrs: inlinehint nounwind uwtable
define internal ptr @ossl_check_CONF_VALUE_sk_type(ptr noundef %0) #3 {
  %2 = alloca ptr, align 8
  store ptr %0, ptr %2, align 8, !tbaa !10
  %3 = load ptr, ptr %2, align 8, !tbaa !10
  ret ptr %3
}

; Function Attrs: inlinehint nounwind uwtable
define internal ptr @ossl_check_const_GENERAL_NAME_sk_type(ptr noundef %0) #3 {
  %2 = alloca ptr, align 8
  store ptr %0, ptr %2, align 8, !tbaa !8
  %3 = load ptr, ptr %2, align 8, !tbaa !8
  ret ptr %3
}

; Function Attrs: nounwind uwtable
define ptr @i2v_GENERAL_NAMES(ptr noundef %0, ptr noundef %1, ptr noundef %2) #1 {
  %4 = alloca ptr, align 8
  %5 = alloca ptr, align 8
  %6 = alloca ptr, align 8
  %7 = alloca ptr, align 8
  %8 = alloca i32, align 4
  %9 = alloca ptr, align 8
  %10 = alloca ptr, align 8
  %11 = alloca ptr, align 8
  %12 = alloca i32, align 4
  store ptr %0, ptr %5, align 8, !tbaa !3
  store ptr %1, ptr %6, align 8, !tbaa !8
  store ptr %2, ptr %7, align 8, !tbaa !10
  call void @llvm.lifetime.start.p0(i64 4, ptr %8) #5
  call void @llvm.lifetime.start.p0(i64 8, ptr %9) #5
  call void @llvm.lifetime.start.p0(i64 8, ptr %10) #5
  store ptr null, ptr %10, align 8, !tbaa !10
  call void @llvm.lifetime.start.p0(i64 8, ptr %11) #5
  %13 = load ptr, ptr %7, align 8, !tbaa !10
  store ptr %13, ptr %11, align 8, !tbaa !10
  store i32 0, ptr %8, align 4, !tbaa !12
  br label %14

14:                                               ; preds = %41, %3
  %15 = load i32, ptr %8, align 4, !tbaa !12
  %16 = load ptr, ptr %6, align 8, !tbaa !8
  %17 = call ptr @ossl_check_const_GENERAL_NAME_sk_type(ptr noundef %16)
  %18 = call i32 @OPENSSL_sk_num(ptr noundef %17)
  %19 = icmp slt i32 %15, %18
  br i1 %19, label %20, label %44

20:                                               ; preds = %14
  %21 = load ptr, ptr %6, align 8, !tbaa !8
  %22 = call ptr @ossl_check_const_GENERAL_NAME_sk_type(ptr noundef %21)
  %23 = load i32, ptr %8, align 4, !tbaa !12
  %24 = call ptr @OPENSSL_sk_value(ptr noundef %22, i32 noundef %23)
  store ptr %24, ptr %9, align 8, !tbaa !14
  %25 = load ptr, ptr %5, align 8, !tbaa !3
  %26 = load ptr, ptr %9, align 8, !tbaa !14
  %27 = load ptr, ptr %7, align 8, !tbaa !10
  %28 = call ptr @i2v_GENERAL_NAME(ptr noundef %25, ptr noundef %26, ptr noundef %27)
  store ptr %28, ptr %10, align 8, !tbaa !10
  %29 = load ptr, ptr %10, align 8, !tbaa !10
  %30 = icmp eq ptr %29, null
  br i1 %30, label %31, label %39

31:                                               ; preds = %20
  %32 = load ptr, ptr %11, align 8, !tbaa !10
  %33 = icmp eq ptr %32, null
  br i1 %33, label %34, label %38

34:                                               ; preds = %31
  %35 = load ptr, ptr %7, align 8, !tbaa !10
  %36 = call ptr @ossl_check_CONF_VALUE_sk_type(ptr noundef %35)
  %37 = call ptr @ossl_check_CONF_VALUE_freefunc_type(ptr noundef @X509V3_conf_free)
  call void @OPENSSL_sk_pop_free(ptr noundef %36, ptr noundef %37)
  br label %38

38:                                               ; preds = %34, %31
  store ptr null, ptr %4, align 8
  store i32 1, ptr %12, align 4
  br label %51

39:                                               ; preds = %20
  %40 = load ptr, ptr %10, align 8, !tbaa !10
  store ptr %40, ptr %7, align 8, !tbaa !10
  br label %41

41:                                               ; preds = %39
  %42 = load i32, ptr %8, align 4, !tbaa !12
  %43 = add nsw i32 %42, 1
  store i32 %43, ptr %8, align 4, !tbaa !12
  br label %14, !llvm.loop !16

44:                                               ; preds = %14
  %45 = load ptr, ptr %7, align 8, !tbaa !10
  %46 = icmp eq ptr %45, null
  br i1 %46, label %47, label %49

47:                                               ; preds = %44
  %48 = call ptr @OPENSSL_sk_new_null()
  store ptr %48, ptr %4, align 8
  store i32 1, ptr %12, align 4
  br label %51

49:                                               ; preds = %44
  %50 = load ptr, ptr %7, align 8, !tbaa !10
  store ptr %50, ptr %4, align 8
  store i32 1, ptr %12, align 4
  br label %51

51:                                               ; preds = %49, %47, %38
  call void @llvm.lifetime.end.p0(i64 8, ptr %11) #5
  call void @llvm.lifetime.end.p0(i64 8, ptr %10) #5
  call void @llvm.lifetime.end.p0(i64 8, ptr %9) #5
  call void @llvm.lifetime.end.p0(i64 4, ptr %8) #5
  %52 = load ptr, ptr %4, align 8
  ret ptr %52
}