; Function Attrs: nounwind uwtable
define ptr @i2v_GENERAL_NAMES(ptr noundef readnone captures(none) %0, ptr noundef %1, ptr noundef %2) #1 {
  %4 = tail call i32 @OPENSSL_sk_num(ptr noundef %1) #4
  %5 = icmp sgt i32 %4, 0
  br i1 %5, label %.lr.ph, label %._crit_edge

6:                                                ; preds = %.lr.ph
  %7 = add nuw nsw i32 %.01619, 1
  %8 = tail call i32 @OPENSSL_sk_num(ptr noundef %1) #4
  %9 = icmp slt i32 %7, %8
  br i1 %9, label %.lr.ph, label %._crit_edge.thread, !llvm.loop !3

.lr.ph:                                           ; preds = %3, %6
  %.01520 = phi ptr [ %11, %6 ], [ %2, %3 ]
  %.01619 = phi i32 [ %7, %6 ], [ 0, %3 ]
  %10 = tail call ptr @OPENSSL_sk_value(ptr noundef %1, i32 noundef %.01619) #4
  %11 = tail call ptr @i2v_GENERAL_NAME(ptr poison, ptr noundef %10, ptr noundef %.01520)
  %12 = icmp eq ptr %11, null
  br i1 %12, label %13, label %6

13:                                               ; preds = %.lr.ph
  %14 = icmp eq ptr %2, null
  br i1 %14, label %15, label %._crit_edge.thread

15:                                               ; preds = %13
  tail call void @OPENSSL_sk_pop_free(ptr noundef %.01520, ptr noundef nonnull @X509V3_conf_free) #4
  br label %._crit_edge.thread

._crit_edge:                                      ; preds = %3
  %16 = icmp eq ptr %2, null
  br i1 %16, label %17, label %._crit_edge.thread

17:                                               ; preds = %._crit_edge
  %18 = tail call ptr @OPENSSL_sk_new_null() #4
  br label %._crit_edge.thread

._crit_edge.thread:                               ; preds = %6, %._crit_edge, %13, %15, %17
  %.0 = phi ptr [ %18, %17 ], [ null, %15 ], [ null, %13 ], [ %2, %._crit_edge ], [ %11, %6 ]
  ret ptr %.0
}